target datalayout = "e-m:e-p270:32:32-p271:32:32-p272:64:64-i64:64-i128:128-f80:128-n8:16:32:64-S128"
target triple = "x86_64-pc-linux-gnu"

; Function Attrs: nounwind uwtable
define hidden i32 @jQualityScaling(i32 noundef %0) #0 {
  %2 = alloca i32, align 4
  store i32 %0, ptr %2, align 4
  %3 = load i32, ptr %2, align 4
  %4 = icmp sle i32 %3, 0
  br i1 %4, label %5, label %6

5:                                                ; preds = %1
  store i32 1, ptr %2, align 4
  br label %6

6:                                                ; preds = %5, %1
  %7 = load i32, ptr %2, align 4
  %8 = icmp sgt i32 %7, 100
  br i1 %8, label %9, label %10

9:                                                ; preds = %6
  store i32 100, ptr %2, align 4
  br label %10

10:                                               ; preds = %9, %6
  %11 = load i32, ptr %2, align 4
  %12 = icmp slt i32 %11, 50
  br i1 %12, label %13, label %16

13:                                               ; preds = %10
  %14 = load i32, ptr %2, align 4
  %15 = sdiv i32 5000, %14
  store i32 %15, ptr %2, align 4
  br label %20

16:                                               ; preds = %10
  %17 = load i32, ptr %2, align 4
  %18 = mul nsw i32 %17, 2
  %19 = sub nsw i32 200, %18
  store i32 %19, ptr %2, align 4
  br label %20

20:                                               ; preds = %16, %13
  %21 = load i32, ptr %2, align 4
  ret i32 %21
}

; Function Attrs: nounwind uwtable
define hidden void @jSetQuality(ptr noundef %0, i32 noundef %1, i32 noundef %2) #0 {
  %4 = alloca ptr, align 8
  %5 = alloca i32, align 4
  %6 = alloca i32, align 4
  store ptr %0, ptr %4, align 8
  store i32 %1, ptr %5, align 4
  store i32 %2, ptr %6, align 4
  %7 = load i32, ptr %5, align 4
  %8 = call i32 @jQualityScaling(i32 noundef %7)
  store i32 %8, ptr %5, align 4
  %9 = load ptr, ptr %4, align 8
  %10 = load i32, ptr %5, align 4
  %11 = load i32, ptr %6, align 4
  call void @jSetLQuality(ptr noundef %9, i32 noundef %10, i32 noundef %11)
  ret void
}