; Function Attrs: nounwind uwtable
define hidden void @jSetQuality(ptr noundef %0, i32 noundef %1, i32 noundef %2) local_unnamed_addr #0 {
  %spec.store.select.i = tail call i32 @llvm.smax.i32(i32 %1, i32 1)
  %spec.store.select1.i = tail call i32 @llvm.umin.i32(i32 %spec.store.select.i, i32 100)
  %4 = icmp slt i32 %1, 50
  br i1 %4, label %5, label %7

5:                                                ; preds = %3
  %.rhs.trunc.i = trunc nuw nsw i32 %spec.store.select1.i to i16
  %6 = udiv i16 5000, %.rhs.trunc.i
  %.zext.i = zext nneg i16 %6 to i32
  br label %jQualityScaling.exit

7:                                                ; preds = %3
  %8 = shl nuw nsw i32 %spec.store.select1.i, 1
  %9 = sub nuw nsw i32 200, %8
  br label %jQualityScaling.exit

jQualityScaling.exit:                             ; preds = %5, %7
  %.0.i = phi i32 [ %.zext.i, %5 ], [ %9, %7 ]
  tail call void @jSetLQuality(ptr noundef %0, i32 noundef %.0.i, i32 noundef %2)
  ret void
}